target datalayout = "e-m:e-p270:32:32-p271:32:32-p272:64:64-i64:64-i128:128-f80:128-n8:16:32:64-S128"
target triple = "x86_64-pc-linux-gnu"

%struct.cmsCIELab = type { double, double, double }
%struct._cmstransform_struct = type { i32, i32, ptr, ptr, ptr, ptr, ptr, %struct._cmsCACHE, ptr, ptr, ptr, ptr, i32, i32, %struct.cmsCIEXYZ, %struct.cmsCIEXYZ, ptr, i32, double, i32, ptr, ptr, ptr, ptr, ptr, i32, i32 }
%struct._cmsCACHE = type { [16 x i16], [16 x i16] }
%struct.cmsCIEXYZ = type { double, double, double }

; Function Attrs: nounwind uwtable
define internal ptr @UnrollLabFloatTo16(ptr noundef %0, ptr noundef %1, ptr noundef %2, i32 noundef %3) #0 {
  %5 = alloca ptr, align 8
  %6 = alloca ptr, align 8
  %7 = alloca ptr, align 8
  %8 = alloca ptr, align 8
  %9 = alloca i32, align 4
  %10 = alloca %struct.cmsCIELab, align 8
  %11 = alloca ptr, align 8
  %12 = alloca ptr, align 8
  %13 = alloca ptr, align 8
  store ptr %0, ptr %6, align 8
  store ptr %1, ptr %7, align 8
  store ptr %2, ptr %8, align 8
  store i32 %3, ptr %9, align 4
  %14 = load ptr, ptr %6, align 8
  %15 = getelementptr inbounds %struct._cmstransform_struct, ptr %14, i32 0, i32 0
  %16 = load i32, ptr %15, align 8
  %17 = lshr i32 %16, 12
  %18 = and i32 %17, 1
  %19 = icmp ne i32 %18, 0
  br i1 %19, label %20, label %46

20:                                               ; preds = %4
  %21 = load ptr, ptr %8, align 8
  store ptr %21, ptr %11, align 8
  %22 = load ptr, ptr %8, align 8
  %23 = load i32, ptr %9, align 4
  %24 = zext i32 %23 to i64
  %25 = getelementptr inbounds i8, ptr %22, i64 %24
  store ptr %25, ptr %12, align 8
  %26 = load ptr, ptr %8, align 8
  %27 = load i32, ptr %9, align 4
  %28 = mul i32 %27, 2
  %29 = zext i32 %28 to i64
  %30 = getelementptr inbounds i8, ptr %26, i64 %29
  store ptr %30, ptr %13, align 8
  %31 = load ptr, ptr %11, align 8
  %32 = load float, ptr %31, align 4
  %33 = fpext float %32 to double
  %34 = getelementptr inbounds %struct.cmsCIELab, ptr %10, i32 0, i32 0
  store double %33, ptr %34, align 8
  %35 = load ptr, ptr %12, align 8
  %36 = load float, ptr %35, align 4
  %37 = fpext float %36 to double
  %38 = getelementptr inbounds %struct.cmsCIELab, ptr %10, i32 0, i32 1
  store double %37, ptr %38, align 8
  %39 = load ptr, ptr %13, align 8
  %40 = load float, ptr %39, align 4
  %41 = fpext float %40 to double
  %42 = getelementptr inbounds %struct.cmsCIELab, ptr %10, i32 0, i32 2
  store double %41, ptr %42, align 8
  %43 = load ptr, ptr %7, align 8
  call void @cmsFloat2LabEncoded(ptr noundef %43, ptr noundef %10)
  %44 = load ptr, ptr %8, align 8
  %45 = getelementptr inbounds i8, ptr %44, i64 4
  store ptr %45, ptr %5, align 8
  br label %74

46:                                               ; preds = %4
  %47 = load ptr, ptr %8, align 8
  %48 = getelementptr inbounds float, ptr %47, i64 0
  %49 = load float, ptr %48, align 4
  %50 = fpext float %49 to double
  %51 = getelementptr inbounds %struct.cmsCIELab, ptr %10, i32 0, i32 0
  store double %50, ptr %51, align 8
  %52 = load ptr, ptr %8, align 8
  %53 = getelementptr inbounds float, ptr %52, i64 1
  %54 = load float, ptr %53, align 4
  %55 = fpext float %54 to double
  %56 = getelementptr inbounds %struct.cmsCIELab, ptr %10, i32 0, i32 1
  store double %55, ptr %56, align 8
  %57 = load ptr, ptr %8, align 8
  %58 = getelementptr inbounds float, ptr %57, i64 2
  %59 = load float, ptr %58, align 4
  %60 = fpext float %59 to double
  %61 = getelementptr inbounds %struct.cmsCIELab, ptr %10, i32 0, i32 2
  store double %60, ptr %61, align 8
  %62 = load ptr, ptr %7, align 8
  call void @cmsFloat2LabEncoded(ptr noundef %62, ptr noundef %10)
  %63 = load ptr, ptr %6, align 8
  %64 = getelementptr inbounds %struct._cmstransform_struct, ptr %63, i32 0, i32 0
  %65 = load i32, ptr %64, align 8
  %66 = lshr i32 %65, 7
  %67 = and i32 %66, 7
  %68 = add i32 3, %67
  %69 = zext i32 %68 to i64
  %70 = mul i64 %69, 4
  %71 = load ptr, ptr %8, align 8
  %72 = getelementptr inbounds i8, ptr %71, i64 %70
  store ptr %72, ptr %8, align 8
  %73 = load ptr, ptr %8, align 8
  store ptr %73, ptr %5, align 8
  br label %74

74:                                               ; preds = %46, %20
  %75 = load ptr, ptr %5, align 8
  ret ptr %75
}