; Function Attrs: nounwind uwtable
define internal nonnull ptr @UnrollLabFloatTo16(ptr nocapture noundef readonly %0, ptr noundef %1, ptr noundef readonly %2, i32 noundef %3) #0 {
  %5 = alloca %struct.cmsCIELab, align 16
  %6 = load i32, ptr %0, align 8
  %7 = and i32 %6, 4096
  %.not = icmp eq i32 %7, 0
  br i1 %.not, label %23, label %8

8:                                                ; preds = %4
  %9 = zext i32 %3 to i64
  %10 = getelementptr inbounds i8, ptr %2, i64 %9
  %11 = shl i32 %3, 1
  %12 = zext i32 %11 to i64
  %13 = getelementptr inbounds i8, ptr %2, i64 %12
  %14 = load float, ptr %2, align 4
  %15 = load float, ptr %10, align 4
  %16 = insertelement <2 x float> poison, float %14, i64 0
  %17 = insertelement <2 x float> %16, float %15, i64 1
  %18 = fpext <2 x float> %17 to <2 x double>
  store <2 x double> %18, ptr %5, align 16
  %19 = load float, ptr %13, align 4
  %20 = fpext float %19 to double
  %21 = getelementptr inbounds i8, ptr %5, i64 16
  store double %20, ptr %21, align 16
  call void @cmsFloat2LabEncoded(ptr noundef %1, ptr noundef nonnull %5) #11
  %22 = getelementptr inbounds i8, ptr %2, i64 4
  br label %36

23:                                               ; preds = %4
  %24 = load <2 x float>, ptr %2, align 4
  %25 = fpext <2 x float> %24 to <2 x double>
  store <2 x double> %25, ptr %5, align 16
  %26 = getelementptr inbounds i8, ptr %2, i64 8
  %27 = load float, ptr %26, align 4
  %28 = fpext float %27 to double
  %29 = getelementptr inbounds i8, ptr %5, i64 16
  store double %28, ptr %29, align 16
  call void @cmsFloat2LabEncoded(ptr noundef %1, ptr noundef nonnull %5) #11
  %30 = load i32, ptr %0, align 8
  %31 = lshr i32 %30, 5
  %32 = and i32 %31, 28
  %33 = zext nneg i32 %32 to i64
  %34 = getelementptr inbounds i8, ptr %2, i64 %33
  %35 = getelementptr inbounds i8, ptr %34, i64 12
  br label %36

36:                                               ; preds = %23, %8
  %.0 = phi ptr [ %22, %8 ], [ %35, %23 ]
  ret ptr %.0
}